target datalayout = "e-m:e-p270:32:32-p271:32:32-p272:64:64-i64:64-i128:128-f80:128-n8:16:32:64-S128"
target triple = "x86_64-pc-linux-gnu"

%"class.cv::utils::trace::details::Region" = type <{ ptr, i32, [4 x i8] }>
%"class.std::__cxx11::basic_string" = type { %"struct.std::__cxx11::basic_string<char>::_Alloc_hider", i64, %union.anon }
%"struct.std::__cxx11::basic_string<char>::_Alloc_hider" = type { ptr }
%union.anon = type { i64, [8 x i8] }
%"class.std::allocator" = type { i8 }

@.str.1 = private unnamed_addr constant [130 x i8] c"generated/home/dtcxzyw/WorkSpace/Projects/compilers/llvm-opt-benchmark/bench/opencv/opencv/modules/imgproc/src/color_yuv.simd.hpp\00", align 1
@.str.4 = private unnamed_addr constant [42 x i8] c"Unknown/unsupported color conversion code\00", align 1
@__func__._ZN2cv3hal12cpu_baseline21cvtThreePlaneYUVtoBGREPKhmPhmiiibi = private unnamed_addr constant [22 x i8] c"cvtThreePlaneYUVtoBGR\00", align 1

; Function Attrs: mustprogress nounwind uwtable
define linkonce_odr void @_ZSt4swapIiENSt9enable_ifIXsr6__and_ISt6__not_ISt15__is_tuple_likeIT_EESt21is_move_constructibleIS3_ESt18is_move_assignableIS3_EEE5valueEvE4typeERS3_SC_(ptr noundef nonnull align 4 dereferenceable(4) %0, ptr noundef nonnull align 4 dereferenceable(4) %1) #2 comdat {
  %3 = alloca ptr, align 8
  %4 = alloca ptr, align 8
  %5 = alloca i32, align 4
  store ptr %0, ptr %3, align 8
  store ptr %1, ptr %4, align 8
  %6 = load ptr, ptr %3, align 8
  %7 = load i32, ptr %6, align 4
  store i32 %7, ptr %5, align 4
  %8 = load ptr, ptr %4, align 8
  %9 = load i32, ptr %8, align 4
  %10 = load ptr, ptr %3, align 8
  store i32 %9, ptr %10, align 4
  %11 = load i32, ptr %5, align 4
  %12 = load ptr, ptr %4, align 8
  store i32 %11, ptr %12, align 4
  ret void
}

; Function Attrs: mustprogress nounwind uwtable
define linkonce_odr void @_ZSt4swapIPKhENSt9enable_ifIXsr6__and_ISt6__not_ISt15__is_tuple_likeIT_EESt21is_move_constructibleIS5_ESt18is_move_assignableIS5_EEE5valueEvE4typeERS5_SE_(ptr noundef nonnull align 8 dereferenceable(8) %0, ptr noundef nonnull align 8 dereferenceable(8) %1) #2 comdat {
  %3 = alloca ptr, align 8
  %4 = alloca ptr, align 8
  %5 = alloca ptr, align 8
  store ptr %0, ptr %3, align 8
  store ptr %1, ptr %4, align 8
  %6 = load ptr, ptr %3, align 8
  %7 = load ptr, ptr %6, align 8
  store ptr %7, ptr %5, align 8
  %8 = load ptr, ptr %4, align 8
  %9 = load ptr, ptr %8, align 8
  %10 = load ptr, ptr %3, align 8
  store ptr %9, ptr %10, align 8
  %11 = load ptr, ptr %5, align 8
  %12 = load ptr, ptr %4, align 8
  store ptr %11, ptr %12, align 8
  ret void
}

; Function Attrs: mustprogress uwtable
define hidden void @_ZN2cv3hal12cpu_baseline21cvtThreePlaneYUVtoBGREPKhmPhmiiibi(ptr noundef %0, i64 noundef %1, ptr noundef %2, i64 noundef %3, i32 noundef %4, i32 noundef %5, i32 noundef %6, i1 noundef zeroext %7, i32 noundef %8) #0 personality ptr @__gxx_personality_v0 {
  %10 = alloca ptr, align 8
  %11 = alloca i64, align 8
  %12 = alloca ptr, align 8
  %13 = alloca i64, align 8
  %14 = alloca i32, align 4
  %15 = alloca i32, align 4
  %16 = alloca i32, align 4
  %17 = alloca i8, align 1
  %18 = alloca i32, align 4
  %19 = alloca %"class.cv::utils::trace::details::Region", align 8
  %20 = alloca ptr, align 8
  %21 = alloca ptr, align 8
  %22 = alloca i32, align 4
  %23 = alloca i32, align 4
  %24 = alloca i32, align 4
  %25 = alloca ptr, align 8
  %26 = alloca %"class.std::__cxx11::basic_string", align 8
  %27 = alloca %"class.std::allocator", align 1
  %28 = alloca ptr, align 8
  %29 = alloca i32, align 4
  store ptr %0, ptr %10, align 8
  store i64 %1, ptr %11, align 8
  store ptr %2, ptr %12, align 8
  store i64 %3, ptr %13, align 8
  store i32 %4, ptr %14, align 4
  store i32 %5, ptr %15, align 4
  store i32 %6, ptr %16, align 4
  %30 = zext i1 %7 to i8
  store i8 %30, ptr %17, align 1
  store i32 %8, ptr %18, align 4
  call void @_ZN2cv5utils5trace7details6RegionC1ERKNS3_21LocationStaticStorageE(ptr noundef nonnull align 8 dereferenceable(12) %19, ptr noundef nonnull align 8 dereferenceable(32) @_ZZN2cv3hal12cpu_baseline21cvtThreePlaneYUVtoBGREPKhmPhmiiibiE26__cv_trace_location_fn2065)
  %31 = load ptr, ptr %10, align 8
  %32 = load i64, ptr %11, align 8
  %33 = load i32, ptr %15, align 4
  %34 = sext i32 %33 to i64
  %35 = mul i64 %32, %34
  %36 = getelementptr inbounds i8, ptr %31, i64 %35
  store ptr %36, ptr %20, align 8
  %37 = load ptr, ptr %10, align 8
  %38 = load i64, ptr %11, align 8
  %39 = load i32, ptr %15, align 4
  %40 = load i32, ptr %15, align 4
  %41 = sdiv i32 %40, 4
  %42 = add nsw i32 %39, %41
  %43 = sext i32 %42 to i64
  %44 = mul i64 %38, %43
  %45 = getelementptr inbounds i8, ptr %37, i64 %44
  %46 = load i32, ptr %14, align 4
  %47 = sdiv i32 %46, 2
  %48 = load i32, ptr %15, align 4
  %49 = srem i32 %48, 4
  %50 = sdiv i32 %49, 2
  %51 = mul nsw i32 %47, %50
  %52 = sext i32 %51 to i64
  %53 = getelementptr inbounds i8, ptr %45, i64 %52
  store ptr %53, ptr %21, align 8
  store i32 0, ptr %22, align 4
  %54 = load i32, ptr %15, align 4
  %55 = srem i32 %54, 4
  %56 = icmp eq i32 %55, 2
  %57 = select i1 %56, i32 1, i32 0
  store i32 %57, ptr %23, align 4
  %58 = load i32, ptr %18, align 4
  %59 = icmp eq i32 %58, 1
  br i1 %59, label %60, label %61

60:                                               ; preds = %9
  call void @_ZSt4swapIPKhENSt9enable_ifIXsr6__and_ISt6__not_ISt15__is_tuple_likeIT_EESt21is_move_constructibleIS5_ESt18is_move_assignableIS5_EEE5valueEvE4typeERS5_SE_(ptr noundef nonnull align 8 dereferenceable(8) %20, ptr noundef nonnull align 8 dereferenceable(8) %21) #10
  call void @_ZSt4swapIiENSt9enable_ifIXsr6__and_ISt6__not_ISt15__is_tuple_likeIT_EESt21is_move_constructibleIS3_ESt18is_move_assignableIS3_EEE5valueEvE4typeERS3_SC_(ptr noundef nonnull align 4 dereferenceable(4) %22, ptr noundef nonnull align 4 dereferenceable(4) %23) #10
  br label %61

61:                                               ; preds = %60, %9
  %62 = load i8, ptr %17, align 1
  %63 = trunc i8 %62 to i1
  %64 = select i1 %63, i32 2, i32 0
  store i32 %64, ptr %24, align 4
  %65 = load i32, ptr %16, align 4
  %66 = mul nsw i32 %65, 10
  %67 = load i32, ptr %24, align 4
  %68 = add nsw i32 %66, %67
  switch i32 %68, label %73 [
    i32 30, label %69
    i32 32, label %70
    i32 40, label %71
    i32 42, label %72
  ]

69:                                               ; preds = %61
  store ptr @_ZN2cv3hal12cpu_baseline12_GLOBAL__N_114cvtYUV420p2RGBILi0ELi3EEEvPhmiimPKhS6_S6_ii, ptr %25, align 8
  br label %85

70:                                               ; preds = %61
  store ptr @_ZN2cv3hal12cpu_baseline12_GLOBAL__N_114cvtYUV420p2RGBILi2ELi3EEEvPhmiimPKhS6_S6_ii, ptr %25, align 8
  br label %85

71:                                               ; preds = %61
  store ptr @_ZN2cv3hal12cpu_baseline12_GLOBAL__N_114cvtYUV420p2RGBILi0ELi4EEEvPhmiimPKhS6_S6_ii, ptr %25, align 8
  br label %85

72:                                               ; preds = %61
  store ptr @_ZN2cv3hal12cpu_baseline12_GLOBAL__N_114cvtYUV420p2RGBILi2ELi4EEEvPhmiimPKhS6_S6_ii, ptr %25, align 8
  br label %85

73:                                               ; preds = %61
  call void @_ZNSaIcEC1Ev(ptr noundef nonnull align 1 dereferenceable(1) %27) #10
  invoke void @_ZNSt7__cxx1112basic_stringIcSt11char_traitsIcESaIcEEC1EPKcRKS3_(ptr noundef nonnull align 8 dereferenceable(32) %26, ptr noundef @.str.4, ptr noundef nonnull align 1 dereferenceable(1) %27)
          to label %74 unwind label %76

74:                                               ; preds = %73
  invoke void @_ZN2cv5errorEiRKNSt7__cxx1112basic_stringIcSt11char_traitsIcESaIcEEEPKcS9_i(i32 noundef -206, ptr noundef nonnull align 8 dereferenceable(32) %26, ptr noundef @__func__._ZN2cv3hal12cpu_baseline21cvtThreePlaneYUVtoBGREPKhmPhmiiibi, ptr noundef @.str.1, i32 noundef 2083) #12
          to label %75 unwind label %80

75:                                               ; preds = %74
  unreachable

76:                                               ; preds = %73
  %77 = landingpad { ptr, i32 }
          cleanup
  %78 = extractvalue { ptr, i32 } %77, 0
  store ptr %78, ptr %28, align 8
  %79 = extractvalue { ptr, i32 } %77, 1
  store i32 %79, ptr %29, align 4
  br label %84

80:                                               ; preds = %74
  %81 = landingpad { ptr, i32 }
          cleanup
  %82 = extractvalue { ptr, i32 } %81, 0
  store ptr %82, ptr %28, align 8
  %83 = extractvalue { ptr, i32 } %81, 1
  store i32 %83, ptr %29, align 4
  call void @_ZNSt7__cxx1112basic_stringIcSt11char_traitsIcESaIcEED1Ev(ptr noundef nonnull align 8 dereferenceable(32) %26) #10
  br label %84

84:                                               ; preds = %80, %76
  call void @_ZNSaIcED1Ev(ptr noundef nonnull align 1 dereferenceable(1) %27) #10
  br label %102

85:                                               ; preds = %72, %71, %70, %69
  %86 = load ptr, ptr %25, align 8
  %87 = load ptr, ptr %12, align 8
  %88 = load i64, ptr %13, align 8
  %89 = load i32, ptr %14, align 4
  %90 = load i32, ptr %15, align 4
  %91 = load i64, ptr %11, align 8
  %92 = load ptr, ptr %10, align 8
  %93 = load ptr, ptr %20, align 8
  %94 = load ptr, ptr %21, align 8
  %95 = load i32, ptr %22, align 4
  %96 = load i32, ptr %23, align 4
  invoke void %86(ptr noundef %87, i64 noundef %88, i32 noundef %89, i32 noundef %90, i64 noundef %91, ptr noundef %92, ptr noundef %93, ptr noundef %94, i32 noundef %95, i32 noundef %96)
          to label %97 unwind label %98

97:                                               ; preds = %85
  call void @_ZN2cv5utils5trace7details6RegionD2Ev(ptr noundef nonnull align 8 dereferenceable(12) %19) #10
  ret void

98:                                               ; preds = %85
  %99 = landingpad { ptr, i32 }
          cleanup
  %100 = extractvalue { ptr, i32 } %99, 0
  store ptr %100, ptr %28, align 8
  %101 = extractvalue { ptr, i32 } %99, 1
  store i32 %101, ptr %29, align 4
  br label %102

102:                                              ; preds = %98, %84
  call void @_ZN2cv5utils5trace7details6RegionD2Ev(ptr noundef nonnull align 8 dereferenceable(12) %19) #10
  br label %103

103:                                              ; preds = %102
  %104 = load ptr, ptr %28, align 8
  %105 = load i32, ptr %29, align 4
  %106 = insertvalue { ptr, i32 } poison, ptr %104, 0
  %107 = insertvalue { ptr, i32 } %106, i32 %105, 1
  resume { ptr, i32 } %107
}