; Function Attrs: mustprogress uwtable
define hidden void @_ZN2cv3hal12cpu_baseline21cvtThreePlaneYUVtoBGREPKhmPhmiiibi(ptr noundef %0, i64 noundef %1, ptr noundef %2, i64 noundef %3, i32 noundef %4, i32 noundef %5, i32 noundef %6, i1 noundef zeroext %7, i32 noundef %8) local_unnamed_addr #0 personality ptr @__gxx_personality_v0 {
  %10 = alloca %"class.cv::utils::trace::details::Region", align 8
  %11 = alloca %"class.std::__cxx11::basic_string", align 8
  %12 = alloca %"class.std::allocator", align 1
  call void @_ZN2cv5utils5trace7details6RegionC1ERKNS3_21LocationStaticStorageE(ptr noundef nonnull align 8 dereferenceable(12) %10, ptr noundef nonnull align 8 dereferenceable(32) @_ZZN2cv3hal12cpu_baseline21cvtThreePlaneYUVtoBGREPKhmPhmiiibiE26__cv_trace_location_fn2065)
  %13 = sext i32 %5 to i64
  %14 = mul i64 %13, %1
  %15 = getelementptr inbounds i8, ptr %0, i64 %14
  %16 = sdiv i32 %5, 4
  %17 = add nsw i32 %16, %5
  %18 = sext i32 %17 to i64
  %19 = mul i64 %18, %1
  %20 = getelementptr inbounds i8, ptr %0, i64 %19
  %21 = sdiv i32 %4, 2
  %22 = srem i32 %5, 4
  %.lhs.trunc = trunc nsw i32 %22 to i8
  %23 = sdiv i8 %.lhs.trunc, 2
  %.sext = sext i8 %23 to i32
  %24 = mul nsw i32 %21, %.sext
  %25 = sext i32 %24 to i64
  %26 = getelementptr inbounds i8, ptr %20, i64 %25
  %27 = icmp eq i32 %22, 2
  %28 = zext i1 %27 to i32
  %29 = icmp eq i32 %8, 1
  br i1 %29, label %30, label %31

30:                                               ; preds = %9
  br label %31

31:                                               ; preds = %30, %9
  %.035 = phi ptr [ %26, %30 ], [ %15, %9 ]
  %.034 = phi ptr [ %15, %30 ], [ %26, %9 ]
  %.033 = phi i32 [ %28, %30 ], [ 0, %9 ]
  %.0 = phi i32 [ 0, %30 ], [ %28, %9 ]
  %32 = select i1 %7, i32 2, i32 0
  %33 = mul nsw i32 %6, 10
  %34 = add i32 %33, -30
  %35 = add i32 %34, %32
  %36 = lshr exact i32 %35, 1
  %37 = icmp ult i32 %35, 14
  br i1 %37, label %switch.hole_check, label %38

38:                                               ; preds = %switch.hole_check, %31
  call void @_ZNSaIcEC1Ev(ptr noundef nonnull align 1 dereferenceable(1) %12) #12
  invoke void @_ZNSt7__cxx1112basic_stringIcSt11char_traitsIcESaIcEEC1EPKcRKS3_(ptr noundef nonnull align 8 dereferenceable(32) %11, ptr noundef nonnull @.str.4, ptr noundef nonnull align 1 dereferenceable(1) %12)
          to label %39 unwind label %41

39:                                               ; preds = %38
  invoke void @_ZN2cv5errorEiRKNSt7__cxx1112basic_stringIcSt11char_traitsIcESaIcEEEPKcS9_i(i32 noundef -206, ptr noundef nonnull align 8 dereferenceable(32) %11, ptr noundef nonnull @__func__._ZN2cv3hal12cpu_baseline21cvtThreePlaneYUVtoBGREPKhmPhmiiibi, ptr noundef nonnull @.str.1, i32 noundef 2083) #14
          to label %40 unwind label %43

40:                                               ; preds = %39
  unreachable

41:                                               ; preds = %38
  %42 = landingpad { ptr, i32 }
          cleanup
  br label %45

43:                                               ; preds = %39
  %44 = landingpad { ptr, i32 }
          cleanup
  call void @_ZNSt7__cxx1112basic_stringIcSt11char_traitsIcESaIcEED1Ev(ptr noundef nonnull align 8 dereferenceable(32) %11) #12
  br label %45

45:                                               ; preds = %43, %41
  %.pn = phi { ptr, i32 } [ %44, %43 ], [ %42, %41 ]
  call void @_ZNSaIcED1Ev(ptr noundef nonnull align 1 dereferenceable(1) %12) #12
  br label %56

switch.hole_check:                                ; preds = %31
  %switch.maskindex = trunc nuw i32 %36 to i8
  %switch.shifted = lshr i8 99, %switch.maskindex
  %switch.lobit = trunc i8 %switch.shifted to i1
  br i1 %switch.lobit, label %switch.lookup, label %38

switch.lookup:                                    ; preds = %switch.hole_check
  %46 = zext nneg i32 %36 to i64
  %switch.gep = getelementptr inbounds [7 x ptr], ptr @switch.table._ZN2cv3hal12cpu_baseline21cvtThreePlaneYUVtoBGREPKhmPhmiiibi, i64 0, i64 %46
  %switch.load = load ptr, ptr %switch.gep, align 8
  invoke void %switch.load(ptr noundef %2, i64 noundef %3, i32 noundef %4, i32 noundef %5, i64 noundef %1, ptr noundef %0, ptr noundef %.035, ptr noundef %.034, i32 noundef %.033, i32 noundef %.0)
          to label %47 unwind label %54, !callees !6

47:                                               ; preds = %switch.lookup
  %48 = getelementptr inbounds i8, ptr %10, i64 8
  %49 = load i32, ptr %48, align 8
  %.not.i = icmp eq i32 %49, 0
  br i1 %.not.i, label %_ZN2cv5utils5trace7details6RegionD2Ev.exit, label %50

50:                                               ; preds = %47
  invoke void @_ZN2cv5utils5trace7details6Region7destroyEv(ptr noundef nonnull align 8 dereferenceable(12) %10)
          to label %_ZN2cv5utils5trace7details6RegionD2Ev.exit unwind label %51

51:                                               ; preds = %50
  %52 = landingpad { ptr, i32 }
          catch ptr null
  %53 = extractvalue { ptr, i32 } %52, 0
  call void @__clang_call_terminate(ptr %53) #13
  unreachable

_ZN2cv5utils5trace7details6RegionD2Ev.exit:       ; preds = %47, %50
  ret void

54:                                               ; preds = %switch.lookup
  %55 = landingpad { ptr, i32 }
          cleanup
  br label %56

56:                                               ; preds = %54, %45
  %.pn.pn = phi { ptr, i32 } [ %.pn, %45 ], [ %55, %54 ]
  call void @_ZN2cv5utils5trace7details6RegionD2Ev(ptr noundef nonnull align 8 dereferenceable(12) %10) #12
  resume { ptr, i32 } %.pn.pn
}